target datalayout = "e-m:e-p270:32:32-p271:32:32-p272:64:64-i64:64-i128:128-f80:128-n8:16:32:64-S128"
target triple = "x86_64-unknown-linux-gnu"

; Function Attrs: nounwind sspstrong uwtable
define internal i64 @cpu_get_host_ticks() #0 {
entry:
  %low = alloca i32, align 4
  %high = alloca i32, align 4
  %val = alloca i64, align 8
  %0 = call { i32, i32 } asm sideeffect "rdtsc", "={ax},={dx},~{dirflag},~{fpsr},~{flags}"() #6, !srcloc !5
  %asmresult = extractvalue { i32, i32 } %0, 0
  %asmresult1 = extractvalue { i32, i32 } %0, 1
  store i32 %asmresult, ptr %low, align 4
  store i32 %asmresult1, ptr %high, align 4
  %1 = load i32, ptr %high, align 4
  %conv = zext i32 %1 to i64
  store i64 %conv, ptr %val, align 8
  %2 = load i64, ptr %val, align 8
  %shl = shl i64 %2, 32
  store i64 %shl, ptr %val, align 8
  %3 = load i32, ptr %low, align 4
  %conv2 = zext i32 %3 to i64
  %4 = load i64, ptr %val, align 8
  %or = or i64 %4, %conv2
  store i64 %or, ptr %val, align 8
  %5 = load i64, ptr %val, align 8
  ret i64 %5
}

; Function Attrs: nounwind sspstrong uwtable
define internal i64 @get_ticks(i1 noundef zeroext %shift) #0 {
entry:
  %shift.addr = alloca i8, align 1
  %val = alloca i64, align 8
  %result = alloca i64, align 8
  %frombool = zext i1 %shift to i8
  store i8 %frombool, ptr %shift.addr, align 1
  %call = call i64 @cpu_get_host_ticks()
  store i64 %call, ptr %val, align 8
  %0 = load i8, ptr %shift.addr, align 1
  %tobool = trunc i8 %0 to i1
  br i1 %tobool, label %if.then, label %if.else

if.then:                                          ; preds = %entry
  %1 = load i64, ptr %val, align 8
  %shr = ashr i64 %1, 32
  store i64 %shr, ptr %result, align 8
  br label %if.end

if.else:                                          ; preds = %entry
  %2 = load i64, ptr %val, align 8
  store i64 %2, ptr %result, align 8
  br label %if.end

if.end:                                           ; preds = %if.else, %if.then
  %3 = load i64, ptr %result, align 8
  ret i64 %3
}

; Function Attrs: nounwind sspstrong uwtable
define internal i32 @read_hpmcounter(ptr noundef %env, i32 noundef %csrno, ptr noundef %val) #0 {
entry:
  %env.addr = alloca ptr, align 8
  %csrno.addr = alloca i32, align 4
  %val.addr = alloca ptr, align 8
  store ptr %env, ptr %env.addr, align 8
  store i32 %csrno, ptr %csrno.addr, align 4
  store ptr %val, ptr %val.addr, align 8
  %call = call i64 @get_ticks(i1 noundef zeroext false)
  %0 = load ptr, ptr %val.addr, align 8
  store i64 %call, ptr %0, align 8
  ret i32 -1
}