; Function Attrs: nounwind sspstrong uwtable
define internal noundef i32 @read_hpmcounter(ptr readnone captures(none) %env, i32 %csrno, ptr noundef writeonly captures(none) initializes((0, 8)) %val) #2 {
entry:
  %0 = tail call { i32, i32 } asm sideeffect "rdtsc", "={ax},={dx},~{dirflag},~{fpsr},~{flags}"() #11, !srcloc !5
  %asmresult.i.i = extractvalue { i32, i32 } %0, 0
  %asmresult1.i.i = extractvalue { i32, i32 } %0, 1
  %conv.i.i = zext i32 %asmresult1.i.i to i64
  %shl.i.i = shl nuw i64 %conv.i.i, 32
  %conv2.i.i = zext i32 %asmresult.i.i to i64
  %or.i.i = or disjoint i64 %shl.i.i, %conv2.i.i
  store i64 %or.i.i, ptr %val, align 8
  ret i32 -1
}